; Function Attrs: mustprogress uwtable
define void @_ZN8device_t14handle_commandE9command_t(ptr nocapture noundef nonnull readonly align 8 dereferenceable(56) %0, ptr noundef %1) local_unnamed_addr #3 align 2 personality ptr @__gxx_personality_v0 {
  %3 = alloca %class.command_t, align 8
  %4 = getelementptr inbounds i8, ptr %0, i64 8
  %5 = getelementptr inbounds i8, ptr %1, i64 8
  %6 = load i64, ptr %5, align 8
  %7 = lshr i64 %6, 48
  %8 = and i64 %7, 255
  %9 = load ptr, ptr %4, align 8
  %10 = getelementptr inbounds %"class.std::function", ptr %9, i64 %8
  call void @llvm.memcpy.p0.p0.i64(ptr noundef nonnull align 8 dereferenceable(16) %3, ptr noundef nonnull align 8 dereferenceable(16) %1, i64 16, i1 false)
  %11 = getelementptr inbounds i8, ptr %3, i64 16
  %12 = getelementptr inbounds i8, ptr %3, i64 32
  %13 = getelementptr inbounds i8, ptr %1, i64 32
  call void @llvm.memset.p0.i64(ptr noundef nonnull align 8 dereferenceable(32) %11, i8 0, i64 32, i1 false)
  %14 = load ptr, ptr %13, align 8
  %.not.i.i.not.i.i = icmp eq ptr %14, null
  br i1 %.not.i.i.not.i.i, label %_ZN9command_tC2ERKS_.exit, label %15

15:                                               ; preds = %2
  %16 = getelementptr inbounds i8, ptr %1, i64 16
  %17 = invoke noundef zeroext i1 %14(ptr noundef nonnull align 8 dereferenceable(16) %11, ptr noundef nonnull align 8 dereferenceable(16) %16, i32 noundef 2)
          to label %18 unwind label %20

18:                                               ; preds = %15
  %19 = load <2 x ptr>, ptr %13, align 8
  store <2 x ptr> %19, ptr %12, align 8
  br label %_ZN9command_tC2ERKS_.exit

20:                                               ; preds = %15
  %21 = landingpad { ptr, i32 }
          cleanup
  %22 = load ptr, ptr %12, align 8
  %.not.i.i.i = icmp eq ptr %22, null
  br i1 %.not.i.i.i, label %common.resume, label %23

23:                                               ; preds = %20
  %24 = invoke noundef zeroext i1 %22(ptr noundef nonnull align 8 dereferenceable(16) %11, ptr noundef nonnull align 8 dereferenceable(16) %11, i32 noundef 3)
          to label %common.resume unwind label %25

25:                                               ; preds = %23
  %26 = landingpad { ptr, i32 }
          catch ptr null
  %27 = extractvalue { ptr, i32 } %26, 0
  call void @__clang_call_terminate(ptr %27) #24
  unreachable

common.resume:                                    ; preds = %43, %40, %20, %23
  %common.resume.op = phi { ptr, i32 } [ %21, %23 ], [ %21, %20 ], [ %41, %40 ], [ %41, %43 ]
  resume { ptr, i32 } %common.resume.op

_ZN9command_tC2ERKS_.exit:                        ; preds = %2, %18
  %28 = getelementptr inbounds i8, ptr %10, i64 16
  %29 = load ptr, ptr %28, align 8
  %.not.i.i = icmp eq ptr %29, null
  br i1 %.not.i.i, label %30, label %31

30:                                               ; preds = %_ZN9command_tC2ERKS_.exit
  invoke void @_ZSt25__throw_bad_function_callv() #25
          to label %.noexc unwind label %40

.noexc:                                           ; preds = %30
  unreachable

31:                                               ; preds = %_ZN9command_tC2ERKS_.exit
  %32 = getelementptr inbounds i8, ptr %10, i64 24
  %33 = load ptr, ptr %32, align 8
  invoke void %33(ptr noundef nonnull align 8 dereferenceable(16) %10, ptr noundef nonnull align 8 dereferenceable(48) %3)
          to label %_ZNKSt8functionIFv9command_tEEclES0_.exit unwind label %40

_ZNKSt8functionIFv9command_tEEclES0_.exit:        ; preds = %31
  %34 = load ptr, ptr %12, align 8
  %.not.i.i.i3 = icmp eq ptr %34, null
  br i1 %.not.i.i.i3, label %_ZN9command_tD2Ev.exit, label %35

35:                                               ; preds = %_ZNKSt8functionIFv9command_tEEclES0_.exit
  %36 = invoke noundef zeroext i1 %34(ptr noundef nonnull align 8 dereferenceable(16) %11, ptr noundef nonnull align 8 dereferenceable(16) %11, i32 noundef 3)
          to label %_ZN9command_tD2Ev.exit unwind label %37

37:                                               ; preds = %35
  %38 = landingpad { ptr, i32 }
          catch ptr null
  %39 = extractvalue { ptr, i32 } %38, 0
  call void @__clang_call_terminate(ptr %39) #24
  unreachable

_ZN9command_tD2Ev.exit:                           ; preds = %_ZNKSt8functionIFv9command_tEEclES0_.exit, %35
  ret void

40:                                               ; preds = %31, %30
  %41 = landingpad { ptr, i32 }
          cleanup
  %42 = load ptr, ptr %12, align 8
  %.not.i.i.i4 = icmp eq ptr %42, null
  br i1 %.not.i.i.i4, label %common.resume, label %43

43:                                               ; preds = %40
  %44 = invoke noundef zeroext i1 %42(ptr noundef nonnull align 8 dereferenceable(16) %11, ptr noundef nonnull align 8 dereferenceable(16) %11, i32 noundef 3)
          to label %common.resume unwind label %45

45:                                               ; preds = %43
  %46 = landingpad { ptr, i32 }
          catch ptr null
  %47 = extractvalue { ptr, i32 } %46, 0
  call void @__clang_call_terminate(ptr %47) #24
  unreachable
}